#SYMBOLS
Index	Identifier	Type	Flag	Data	Size	RefCount
0	__signed_stack_002checkHeading	6	1	0	4	2
1	__signed_stack_001checkHeading	6	1	4	4	2
2	__CLSWMutex3	9	0	8	4	2
3	__CLSRMutex3	9	0	12	4	2
4	__RLSBmutex3	9	0	16	4	2
5	__D0checkHeading	6	1	20	4	12
6	__DU0SetSensorLowspeed_inline_main	5	1	24	4	10
7	__D0SetSensorLowspeed_inline_main	6	1	28	4	4
8	__CLSCSMutex3	9	0	32	4	2
9	__ResetSensor_7qG2_port_7qG2_000_inline_SetSensorLowspeed_inline_main	1	1	36	1	2
10	__SetSensorMode_7qG2_mode_7qG2_000_inline_SetSensorLowspeed_inline_main	1	1	37	1	4
11	__checkHeading_return	1	1	38	1	3
12	__PFTmp	1	1	39	1	1
13	__constVal15	2	0	40	1	1
14	__SetSensorMode_7qG2_port_7qG2_000_inline_SetSensorLowspeed_inline_main	1	1	41	1	4
15	____initialize_global_data_return	1	1	42	1	3
16	__SetSensorLowspeed_7qG2_port_7qG2_000_inline_main	1	1	43	1	10
17	__SetSensorLowspeed_7qG2_bIsPowered_7qG2_000_inline_main	1	1	44	1	4
18	__SetSensorType_7qG2_type_7qG2_000_inline_SetSensorLowspeed_inline_main	1	1	45	1	4
19	__SetSensorType_7qG2_port_7qG2_000_inline_SetSensorLowspeed_inline_main	1	1	46	1	4
20	__RLSBIterations3	1	1	47	1	4
21	__ResetSensorTmp	1	1	48	1	2
22	____ResetSensorSubroutine_return	1	1	49	1	4
23	__LSWriteOptions3	1	1	50	1	1
24	__ResetSensorPort	1	1	51	1	4
25	__constVal1	2	0	52	1	6
26	__constVal0	2	1	53	1	1
27	__constVal3	2	0	54	1	1
28	____ReadLSBytes3_return	1	1	55	1	3
29	__RLSBResult3	2	1	56	1	7
30	__RLSBytesCount3	1	1	57	1	9
31	__CLSWArgs3	8	0	4	12	5
32	__CLSWArgs3.Result	2	1	60	1	5
33	__CLSWArgs3.Port	1	1	61	1	5
34	__CLSWArgs3.Buffer	7	0	62	4	5
35	__CLSWArgs3.Buffer.Buffer_type	1	0	0	1	0
36	__CLSWArgs3.ReturnLen	1	1	64	1	5
37	__CLSCSArgs3	8	0	3	4	4
38	__CLSCSArgs3.Result	2	1	68	1	4
39	__CLSCSArgs3.Port	1	1	69	1	4
40	__CLSCSArgs3.BytesReady	1	1	70	1	4
41	__TextOutArgs	8	0	4	16	6
42	__TextOutArgs.Result	2	1	72	1	6
43	__TextOutArgs.Location	8	0	2	4	6
44	__TextOutArgs.Location.X	4	1	76	2	6
45	__TextOutArgs.Location.Y	4	1	78	2	6
46	__TextOutArgs.Text	7	0	80	4	6
47	__TextOutArgs.Text.Text_type	1	0	0	1	0
48	__TextOutArgs.Options	5	1	84	4	6
49	__CLSRArgs3	8	0	4	12	5
50	__CLSRArgs3.Result	2	1	88	1	5
51	__CLSRArgs3.Port	1	1	89	1	5
52	__CLSRArgs3.Buffer	7	0	90	4	5
53	__CLSRArgs3.Buffer.Buffer_type	1	0	0	1	0
54	__CLSRArgs3.BufferLen	1	1	92	1	5
55	__RLSBbufLSWrite1	7	0	94	4	1
56	__RLSBbufLSWrite1.__RLSBbufLSWrite1_type	1	0	0	1	0
57	__RLSReadBuf3	7	0	96	4	9
58	__RLSReadBuf3.__RLSReadBuf3_type	1	0	0	1	0
59	__RLSLastGoodRead3	7	0	98	4	2
60	__RLSLastGoodRead3.__RLSLastGoodRead3_type	1	0	0	1	0
61	heading	7	0	100	4	2
62	heading.heading_type	1	0	0	1	0
63	__strretvalcheckHeading	7	0	102	4	2
64	__strretvalcheckHeading.__strretvalcheckHeading_type	1	0	0	1	0
65	__strbufcheckHeading	7	0	104	4	4
66	__strbufcheckHeading.__strbufcheckHeading_type	1	0	0	1	0
#SOURCES
Clump	Line	PC	Source
0	30	0	#line 30 "E:\Git\holonomic\program1.nxc"
0	31	0		subcall __initialize_global_data, ____initialize_global_data_return
0	30	2	#line 30 "E:\Git\holonomic\program1.nxc"
0	30	2	#line 30 "E:\Git\holonomic\program1.nxc"
0	31	2		set __SetSensorLowspeed_7qG2_port_7qG2_000_inline_main, 2
0	30	5	#line 30 "E:\Git\holonomic\program1.nxc"
0	31	5	#line 31 "E:\Git\holonomic\program1.nxc"
0	32	5		mov __SetSensorLowspeed_7qG2_bIsPowered_7qG2_000_inline_main, __constVal1
0	4342	7	#line 4342 "NXCDefs.h"
0	4343	7		mov __SetSensorType_7qG2_port_7qG2_000_inline_SetSensorLowspeed_inline_main, __SetSensorLowspeed_7qG2_port_7qG2_000_inline_main
0	4342	9	#line 4342 "NXCDefs.h"
0	4342	9	#line 4342 "NXCDefs.h"
0	4343	9		mov __DU0SetSensorLowspeed_inline_main, __SetSensorLowspeed_7qG2_bIsPowered_7qG2_000_inline_main
0	4342	11	#line 4342 "NXCDefs.h"
0	4343	11		tst 5, __D0SetSensorLowspeed_inline_main, __DU0SetSensorLowspeed_inline_main
0	4342	14	#line 4342 "NXCDefs.h"
0	4343	14		brtst 4, __004__ASM_Label_36, __D0SetSensorLowspeed_inline_main
0	4342	17	#line 4342 "NXCDefs.h"
0	4343	17		set __DU0SetSensorLowspeed_inline_main, 11
0	4342	20	#line 4342 "NXCDefs.h"
0	4342	20	#line 4342 "NXCDefs.h"
0	4343	20		jmp __004__ASM_Label_37
0	4342	22	#line 4342 "NXCDefs.h"
0	4343	22		set __DU0SetSensorLowspeed_inline_main, 10
0	4342	25	#line 4342 "NXCDefs.h"
0	4342	25	#line 4342 "NXCDefs.h"
0	4343	25		mov __SetSensorType_7qG2_type_7qG2_000_inline_SetSensorLowspeed_inline_main, __DU0SetSensorLowspeed_inline_main
0	4247	27	#line 4247 "NXCDefs.h"
0	4248	27		setin __SetSensorType_7qG2_type_7qG2_000_inline_SetSensorLowspeed_inline_main, __SetSensorType_7qG2_port_7qG2_000_inline_SetSensorLowspeed_inline_main, 0
0	4247	31	#line 4247 "NXCDefs.h"
0	4343	31	#line 4343 "NXCDefs.h"
0	4343	31	#line 4343 "NXCDefs.h"
0	4344	31		mov __SetSensorMode_7qG2_port_7qG2_000_inline_SetSensorLowspeed_inline_main, __SetSensorLowspeed_7qG2_port_7qG2_000_inline_main
0	4343	33	#line 4343 "NXCDefs.h"
0	4343	33	#line 4343 "NXCDefs.h"
0	4344	33		set __SetSensorMode_7qG2_mode_7qG2_000_inline_SetSensorLowspeed_inline_main, 0
0	4343	36	#line 4343 "NXCDefs.h"
0	4260	36	#line 4260 "NXCDefs.h"
0	4261	36		setin __SetSensorMode_7qG2_mode_7qG2_000_inline_SetSensorLowspeed_inline_main, __SetSensorMode_7qG2_port_7qG2_000_inline_SetSensorLowspeed_inline_main, 1
0	4260	40	#line 4260 "NXCDefs.h"
0	4344	40	#line 4344 "NXCDefs.h"
0	4344	40	#line 4344 "NXCDefs.h"
0	4345	40		mov __ResetSensor_7qG2_port_7qG2_000_inline_SetSensorLowspeed_inline_main, __SetSensorLowspeed_7qG2_port_7qG2_000_inline_main
0	4344	42	#line 4344 "NXCDefs.h"
0	4278	42	#line 4278 "NXCDefs.h"
0	4279	42	#pragma macro 4
0	4279	42		mov __ResetSensorPort, __SetSensorLowspeed_7qG2_port_7qG2_000_inline_main
0	4279	44		subcall __ResetSensorSubroutine, ____ResetSensorSubroutine_return
0	4524	46	#line 4524 "NXCDefs.h"
0	4278	46	#line 4278 "NXCDefs.h"
0	4345	46	#line 4345 "NXCDefs.h"
0	31	46	#line 31 "E:\Git\holonomic\program1.nxc"
0	31	46	#line 31 "E:\Git\holonomic\program1.nxc"
0	32	46		set __SetSensorLowspeed_7qG2_port_7qG2_000_inline_main, 3
0	31	49	#line 31 "E:\Git\holonomic\program1.nxc"
0	40	49	#line 40 "E:\Git\holonomic\program1.nxc"
0	41	49		mov __SetSensorLowspeed_7qG2_bIsPowered_7qG2_000_inline_main, __constVal1
0	4342	51	#line 4342 "NXCDefs.h"
0	4343	51		mov __SetSensorType_7qG2_port_7qG2_000_inline_SetSensorLowspeed_inline_main, __SetSensorLowspeed_7qG2_port_7qG2_000_inline_main
0	4342	53	#line 4342 "NXCDefs.h"
0	4342	53	#line 4342 "NXCDefs.h"
0	4343	53		mov __DU0SetSensorLowspeed_inline_main, __SetSensorLowspeed_7qG2_bIsPowered_7qG2_000_inline_main
0	4342	55	#line 4342 "NXCDefs.h"
0	4343	55		tst 5, __D0SetSensorLowspeed_inline_main, __DU0SetSensorLowspeed_inline_main
0	4342	58	#line 4342 "NXCDefs.h"
0	4343	58		brtst 4, __005__ASM_Label_36, __D0SetSensorLowspeed_inline_main
0	4342	61	#line 4342 "NXCDefs.h"
0	4343	61		set __DU0SetSensorLowspeed_inline_main, 11
0	4342	64	#line 4342 "NXCDefs.h"
0	4342	64	#line 4342 "NXCDefs.h"
0	4343	64		jmp __005__ASM_Label_37
0	4342	66	#line 4342 "NXCDefs.h"
0	4343	66		set __DU0SetSensorLowspeed_inline_main, 10
0	4342	69	#line 4342 "NXCDefs.h"
0	4342	69	#line 4342 "NXCDefs.h"
0	4343	69		mov __SetSensorType_7qG2_type_7qG2_000_inline_SetSensorLowspeed_inline_main, __DU0SetSensorLowspeed_inline_main
0	4247	71	#line 4247 "NXCDefs.h"
0	4248	71		setin __SetSensorType_7qG2_type_7qG2_000_inline_SetSensorLowspeed_inline_main, __SetSensorType_7qG2_port_7qG2_000_inline_SetSensorLowspeed_inline_main, 0
0	4247	75	#line 4247 "NXCDefs.h"
0	4343	75	#line 4343 "NXCDefs.h"
0	4343	75	#line 4343 "NXCDefs.h"
0	4344	75		mov __SetSensorMode_7qG2_port_7qG2_000_inline_SetSensorLowspeed_inline_main, __SetSensorLowspeed_7qG2_port_7qG2_000_inline_main
0	4343	77	#line 4343 "NXCDefs.h"
0	4343	77	#line 4343 "NXCDefs.h"
0	4344	77		set __SetSensorMode_7qG2_mode_7qG2_000_inline_SetSensorLowspeed_inline_main, 0
0	4343	80	#line 4343 "NXCDefs.h"
0	4260	80	#line 4260 "NXCDefs.h"
0	4261	80		setin __SetSensorMode_7qG2_mode_7qG2_000_inline_SetSensorLowspeed_inline_main, __SetSensorMode_7qG2_port_7qG2_000_inline_SetSensorLowspeed_inline_main, 1
0	4260	84	#line 4260 "NXCDefs.h"
0	4344	84	#line 4344 "NXCDefs.h"
0	4344	84	#line 4344 "NXCDefs.h"
0	4345	84		mov __ResetSensor_7qG2_port_7qG2_000_inline_SetSensorLowspeed_inline_main, __SetSensorLowspeed_7qG2_port_7qG2_000_inline_main
0	4344	86	#line 4344 "NXCDefs.h"
0	4278	86	#line 4278 "NXCDefs.h"
0	4279	86	#pragma macro 4
0	4279	86		mov __ResetSensorPort, __SetSensorLowspeed_7qG2_port_7qG2_000_inline_main
0	4279	88		subcall __ResetSensorSubroutine, ____ResetSensorSubroutine_return
0	4587	90	#line 4587 "NXCDefs.h"
0	4278	90	#line 4278 "NXCDefs.h"
0	4345	90	#line 4345 "NXCDefs.h"
0	40	90	#line 40 "E:\Git\holonomic\program1.nxc"
0	41	90	#line 41 "E:\Git\holonomic\program1.nxc"
0	42	90		subcall checkHeading, __checkHeading_return
0	41	92	#line 41 "E:\Git\holonomic\program1.nxc"
0	42	92		exit -1, -1
1	5476	0		setin __constVal1, __ResetSensorPort, 5
1	5478	4		getin __ResetSensorTmp, __ResetSensorPort, 5
1	5479	8		brtst 5, __SensorStillInvalid, __ResetSensorTmp
1	5480	11		subret ____ResetSensorSubroutine_return
2	6393	0	#pragma macro 25
2	6393	0		acquire __CLSWMutex3
2	6393	1		or __CLSWArgs3.Port, __constVal3, __LSWriteOptions3
2	6393	5		mov __CLSWArgs3.ReturnLen, __RLSBytesCount3
2	6393	7		mov __CLSWArgs3.Buffer, __RLSReadBuf3
2	6393	9		syscall 21, __CLSWArgs3
2	6393	12		mov __RLSBResult3, __CLSWArgs3.Result
2	6393	14		release __CLSWMutex3
2	6393	15	#line 6393 "NXTDefs.h"
2	6394	15		brtst 5, __RLSBError3, __RLSBResult3
2	6395	18		set __RLSBIterations3, 60
2	6397	21	#pragma macro 23
2	6397	21		acquire __CLSCSMutex3
2	6397	22		set __CLSCSArgs3.Port, 3
2	6397	25		syscall 23, __CLSCSArgs3
2	6397	28		mov __RLSBytesCount3, __CLSCSArgs3.BytesReady
2	6397	30		mov __RLSBResult3, __CLSCSArgs3.Result
2	6397	32		release __CLSCSMutex3
2	6397	33	#line 6397 "NXTDefs.h"
2	6398	33		sub __RLSBIterations3, __RLSBIterations3, __constVal1
2	6399	37		brtst 2, __RLSBError3, __RLSBIterations3
2	6400	40		brtst 0, __RLSBError3, __RLSBResult3
2	6401	43		brtst 4, __RLSBReadyToRead3, __RLSBResult3
2	6403	46		wait2 NA, __constVal1
2	6404	49		jmp __RLSBDoCheckStatus3
2	6406	51		brtst 4, __RLSBReturn3, __RLSBytesCount3
2	6407	54		arrinit __RLSReadBuf3, __constVal0, __RLSBytesCount3
2	6409	58	#pragma macro 25
2	6409	58		acquire __CLSRMutex3
2	6409	59		set __CLSRArgs3.Port, 3
2	6409	62		mov __CLSRArgs3.BufferLen, __RLSBytesCount3
2	6409	64		syscall 22, __CLSRArgs3
2	6409	67		mov __RLSReadBuf3, __CLSRArgs3.Buffer
2	6409	69		mov __RLSBResult3, __CLSRArgs3.Result
2	6409	71		release __CLSRMutex3
2	6409	72	#line 6409 "NXTDefs.h"
2	6410	72		brtst 5, __RLSBError3, __RLSBResult3
2	6411	75		mov __RLSLastGoodRead3, __RLSReadBuf3
2	6412	77		jmp __RLSBDone3
2	6414	79		mov __RLSReadBuf3, __RLSLastGoodRead3
2	6416	81		arrsize __RLSBytesCount3, __RLSReadBuf3
2	6418	84		subret ____ReadLSBytes3_return
3	63	0	#line 63 "E:\Git\holonomic\program1.nxc"
3	64	0		set __D0checkHeading, 1
3	64	3	#line 64 "E:\Git\holonomic\program1.nxc"
3	65	3		tst 5, __D0checkHeading, __D0checkHeading
3	64	6	#line 64 "E:\Git\holonomic\program1.nxc"
3	65	6		brtst 4, __ASM_Label_515, __D0checkHeading
3	64	9	#line 64 "E:\Git\holonomic\program1.nxc"
3	65	9	#pragma macro 30
3	65	9		acquire __RLSBmutex3
3	65	10		mov __RLSReadBuf3, __RLSBbufLSWrite1
3	65	12		set __RLSBytesCount3, 2
3	65	15		subcall __ReadLSBytes3, ____ReadLSBytes3_return
3	65	17		index __D0checkHeading, __RLSReadBuf3, 65535
3	65	21		index __RLSBytesCount3, __RLSReadBuf3, __constVal1
3	65	25		add __D0checkHeading, __D0checkHeading, __D0checkHeading
3	65	29		add __D0checkHeading, __D0checkHeading, __RLSBytesCount3
3	65	33		release __RLSBmutex3
3	4723	34	#line 4723 "E:\Git\holonomic\program1.nxc"
3	66	34	#line 66 "E:\Git\holonomic\program1.nxc"
3	67	34		numtostr __strretvalcheckHeading, __D0checkHeading
3	66	37	#line 66 "E:\Git\holonomic\program1.nxc"
3	67	37		strcat __strbufcheckHeading, __strretvalcheckHeading
3	66	41	#line 66 "E:\Git\holonomic\program1.nxc"
3	67	41		mov heading, __strbufcheckHeading
3	66	43	#line 66 "E:\Git\holonomic\program1.nxc"
3	66	43	#line 66 "E:\Git\holonomic\program1.nxc"
3	66	43	#line 66 "E:\Git\holonomic\program1.nxc"
3	67	43		set __signed_stack_001checkHeading, 0
3	66	46	#line 66 "E:\Git\holonomic\program1.nxc"
3	66	46	#line 66 "E:\Git\holonomic\program1.nxc"
3	67	46		set __signed_stack_002checkHeading, 48
3	66	49	#line 66 "E:\Git\holonomic\program1.nxc"
3	66	49	#line 66 "E:\Git\holonomic\program1.nxc"
3	67	49		strcat __strbufcheckHeading, heading
3	67	53	#line 67 "E:\Git\holonomic\program1.nxc"
3	67	53	#line 67 "E:\Git\holonomic\program1.nxc"
3	68	53		mov __TextOutArgs.Location.X, __signed_stack_001checkHeading
3	67	55	#line 67 "E:\Git\holonomic\program1.nxc"
3	68	55		mov __TextOutArgs.Location.Y, __signed_stack_002checkHeading
3	67	57	#line 67 "E:\Git\holonomic\program1.nxc"
3	68	57		set __TextOutArgs.Options, 0
3	67	60	#line 67 "E:\Git\holonomic\program1.nxc"
3	68	60		mov __TextOutArgs.Text, __strbufcheckHeading
3	67	62	#line 67 "E:\Git\holonomic\program1.nxc"
3	68	62		syscall 13, __TextOutArgs
3	67	65	#line 67 "E:\Git\holonomic\program1.nxc"
3	68	65		mov __D0checkHeading, __TextOutArgs.Result
3	67	67	#line 67 "E:\Git\holonomic\program1.nxc"
3	67	67	#line 67 "E:\Git\holonomic\program1.nxc"
3	70	67	#line 70 "E:\Git\holonomic\program1.nxc"
3	71	67		jmp __ASM_Label_514
3	70	69	#line 70 "E:\Git\holonomic\program1.nxc"
3	70	69	#line 70 "E:\Git\holonomic\program1.nxc"
3	71	69		subret __checkHeading_return
4	307	0	#line 307 "E:\Git\holonomic\program1.nxc"
4	308	0		subret ____initialize_global_data_return
#CLUMPS
Clump	Name	Offset	File
0	main	0	E:\Git\holonomic\program1.nxc
1	__ResetSensorSubroutine	95	NXTDefs.h
2	__ReadLSBytes3	108	NXTDefs.h
3	checkHeading	194	E:\Git\holonomic\program1.nxc
4	__initialize_global_data	265	E:\Git\holonomic\program1.nxc
